target datalayout = "e-m:e-p270:32:32-p271:32:32-p272:64:64-i64:64-i128:128-f80:128-n8:16:32:64-S128"
target triple = "x86_64-pc-linux-gnu"

@.str.454 = private unnamed_addr constant [35 x i8] c"%s: rep_count should never be zero\00", align 1
@__func__.slurm_get_rep_count_inx = private unnamed_addr constant [24 x i8] c"slurm_get_rep_count_inx\00", align 1

; Function Attrs: nounwind uwtable
define dso_local i32 @slurm_get_rep_count_inx(ptr noundef %0, i32 noundef %1, i32 noundef %2) #0 {
  %4 = alloca i32, align 4
  %5 = alloca ptr, align 8
  %6 = alloca i32, align 4
  %7 = alloca i32, align 4
  %8 = alloca i32, align 4
  %9 = alloca i32, align 4
  %10 = alloca i32, align 4
  store ptr %0, ptr %5, align 8
  store i32 %1, ptr %6, align 4
  store i32 %2, ptr %7, align 4
  call void @llvm.lifetime.start.p0(i64 4, ptr %8) #11
  store i32 0, ptr %8, align 4
  call void @llvm.lifetime.start.p0(i64 4, ptr %9) #11
  store i32 0, ptr %9, align 4
  br label %11

11:                                               ; preds = %39, %3
  %12 = load i32, ptr %9, align 4
  %13 = load i32, ptr %6, align 4
  %14 = icmp ult i32 %12, %13
  br i1 %14, label %16, label %15

15:                                               ; preds = %11
  store i32 2, ptr %10, align 4
  br label %42

16:                                               ; preds = %11
  %17 = load ptr, ptr %5, align 8
  %18 = load i32, ptr %9, align 4
  %19 = sext i32 %18 to i64
  %20 = getelementptr inbounds i32, ptr %17, i64 %19
  %21 = load i32, ptr %20, align 4
  %22 = icmp eq i32 %21, 0
  br i1 %22, label %23, label %25

23:                                               ; preds = %16
  %24 = call i32 (ptr, ...) @error(ptr noundef @.str.454, ptr noundef @__func__.slurm_get_rep_count_inx)
  store i32 -1, ptr %4, align 4
  store i32 1, ptr %10, align 4
  br label %42

25:                                               ; preds = %16
  %26 = load ptr, ptr %5, align 8
  %27 = load i32, ptr %9, align 4
  %28 = sext i32 %27 to i64
  %29 = getelementptr inbounds i32, ptr %26, i64 %28
  %30 = load i32, ptr %29, align 4
  %31 = load i32, ptr %8, align 4
  %32 = add i32 %31, %30
  store i32 %32, ptr %8, align 4
  %33 = load i32, ptr %8, align 4
  %34 = load i32, ptr %7, align 4
  %35 = icmp sgt i32 %33, %34
  br i1 %35, label %36, label %38

36:                                               ; preds = %25
  %37 = load i32, ptr %9, align 4
  store i32 %37, ptr %4, align 4
  store i32 1, ptr %10, align 4
  br label %42

38:                                               ; preds = %25
  br label %39

39:                                               ; preds = %38
  %40 = load i32, ptr %9, align 4
  %41 = add nsw i32 %40, 1
  store i32 %41, ptr %9, align 4
  br label %11, !llvm.loop !78

42:                                               ; preds = %36, %23, %15
  call void @llvm.lifetime.end.p0(i64 4, ptr %9) #11
  %43 = load i32, ptr %10, align 4
  switch i32 %43, label %45 [
    i32 2, label %44
  ]

44:                                               ; preds = %42
  store i32 -1, ptr %4, align 4
  store i32 1, ptr %10, align 4
  br label %45

45:                                               ; preds = %44, %42
  call void @llvm.lifetime.end.p0(i64 4, ptr %8) #11
  %46 = load i32, ptr %4, align 4
  ret i32 %46
}