; Function Attrs: nounwind uwtable
define dso_local i32 @slurm_get_rep_count_inx(ptr noundef readonly captures(none) %0, i32 noundef %1, i32 noundef %2) local_unnamed_addr #1 {
  %.not17.not = icmp eq i32 %1, 0
  br i1 %.not17.not, label %.loopexit, label %.lr.ph.preheader

.lr.ph.preheader:                                 ; preds = %3
  %wide.trip.count = zext i32 %1 to i64
  br label %.lr.ph

.lr.ph:                                           ; preds = %.lr.ph.preheader, %12
  %indvars.iv = phi i64 [ 0, %.lr.ph.preheader ], [ %indvars.iv.next, %12 ]
  %.01318 = phi i32 [ 0, %.lr.ph.preheader ], [ %10, %12 ]
  %4 = getelementptr inbounds nuw i32, ptr %0, i64 %indvars.iv
  %5 = load i32, ptr %4, align 4
  %6 = icmp eq i32 %5, 0
  br i1 %6, label %7, label %9

7:                                                ; preds = %.lr.ph
  %8 = tail call i32 (ptr, ...) @error(ptr noundef nonnull @.str.454, ptr noundef nonnull @__func__.slurm_get_rep_count_inx) #24
  br label %.loopexit

9:                                                ; preds = %.lr.ph
  %10 = add i32 %5, %.01318
  %11 = icmp sgt i32 %10, %2
  br i1 %11, label %.loopexit.loopexit.split.loop.exit, label %12

12:                                               ; preds = %9
  %indvars.iv.next = add nuw nsw i64 %indvars.iv, 1
  %exitcond.not = icmp eq i64 %indvars.iv.next, %wide.trip.count
  br i1 %exitcond.not, label %.loopexit, label %.lr.ph, !llvm.loop !79

.loopexit.loopexit.split.loop.exit:               ; preds = %9
  %13 = trunc nuw nsw i64 %indvars.iv to i32
  br label %.loopexit

.loopexit:                                        ; preds = %12, %.loopexit.loopexit.split.loop.exit, %3, %7
  %spec.select = phi i32 [ -1, %7 ], [ -1, %3 ], [ %13, %.loopexit.loopexit.split.loop.exit ], [ -1, %12 ]
  ret i32 %spec.select
}